target datalayout = "e-m:e-p270:32:32-p271:32:32-p272:64:64-i64:64-i128:128-f80:128-n8:16:32:64-S128"
target triple = "x86_64-unknown-linux-gnu"

%class.svector = type { %class.vector.0 }
%class.vector.0 = type { ptr }
%class.ptr_vector = type { %class.vector }
%class.vector = type { ptr }
%"class.smt::theory" = type <{ ptr, i32, [4 x i8], ptr, ptr, %class.ptr_vector, %class.svector, i32, i8, [3 x i8] }>

; Function Attrs: mustprogress uwtable
define linkonce_odr hidden void @_ZN3smt7context11mk_th_axiomEijPN3sat7literalEjP9parameter(ptr noundef nonnull align 8 dereferenceable(11616) %this, i32 noundef %tid, i32 noundef %num_lits, ptr noundef %lits, i32 noundef %num_params, ptr noundef %params) #5 comdat align 2 {
entry:
  %this.addr = alloca ptr, align 8
  %tid.addr = alloca i32, align 4
  %num_lits.addr = alloca i32, align 4
  %lits.addr = alloca ptr, align 8
  %num_params.addr = alloca i32, align 4
  %params.addr = alloca ptr, align 8
  store ptr %this, ptr %this.addr, align 8
  store i32 %tid, ptr %tid.addr, align 4
  store i32 %num_lits, ptr %num_lits.addr, align 4
  store ptr %lits, ptr %lits.addr, align 8
  store i32 %num_params, ptr %num_params.addr, align 4
  store ptr %params, ptr %params.addr, align 8
  %this1 = load ptr, ptr %this.addr, align 8
  %0 = load i32, ptr %tid.addr, align 4
  %1 = load i32, ptr %num_lits.addr, align 4
  %2 = load ptr, ptr %lits.addr, align 8
  %3 = load i32, ptr %num_params.addr, align 4
  %4 = load ptr, ptr %params.addr, align 8
  call void @_ZN3smt7context12mk_th_clauseEijPN3sat7literalEjP9parameterNS_11clause_kindE(ptr noundef nonnull align 8 dereferenceable(11616) %this1, i32 noundef %0, i32 noundef %1, ptr noundef %2, i32 noundef %3, ptr noundef %4, i32 noundef 1)
  ret void
}

; Function Attrs: mustprogress nounwind uwtable
define linkonce_odr hidden noundef i32 @_ZNK3smt6theory6get_idEv(ptr noundef nonnull align 8 dereferenceable(53) %this) #4 comdat align 2 {
entry:
  %this.addr = alloca ptr, align 8
  store ptr %this, ptr %this.addr, align 8
  %this1 = load ptr, ptr %this.addr, align 8
  %m_id = getelementptr inbounds %"class.smt::theory", ptr %this1, i32 0, i32 1
  %0 = load i32, ptr %m_id, align 8
  ret i32 %0
}

; Function Attrs: mustprogress uwtable
define hidden void @_ZN3smt17theory_array_base12assert_axiomEjPN3sat7literalE(ptr noundef nonnull align 8 dereferenceable(249) %this, i32 noundef %num_lits, ptr noundef %lits) #5 align 2 {
entry:
  %this.addr = alloca ptr, align 8
  %num_lits.addr = alloca i32, align 4
  %lits.addr = alloca ptr, align 8
  store ptr %this, ptr %this.addr, align 8
  store i32 %num_lits, ptr %num_lits.addr, align 4
  store ptr %lits, ptr %lits.addr, align 8
  %this1 = load ptr, ptr %this.addr, align 8
  %ctx = getelementptr inbounds %"class.smt::theory", ptr %this1, i32 0, i32 3
  %0 = load ptr, ptr %ctx, align 8
  %call = call noundef i32 @_ZNK3smt6theory6get_idEv(ptr noundef nonnull align 8 dereferenceable(53) %this1)
  %1 = load i32, ptr %num_lits.addr, align 4
  %2 = load ptr, ptr %lits.addr, align 8
  call void @_ZN3smt7context11mk_th_axiomEijPN3sat7literalEjP9parameter(ptr noundef nonnull align 8 dereferenceable(11616) %0, i32 noundef %call, i32 noundef %1, ptr noundef %2, i32 noundef 0, ptr noundef null)
  ret void
}